target datalayout = "e-m:e-p270:32:32-p271:32:32-p272:64:64-i64:64-i128:128-f80:128-n8:16:32:64-S128"
target triple = "x86_64-unknown-linux-gnu"

%"class.llvh::raw_fd_ostream" = type { %"class.llvh::raw_pwrite_stream.base", i32, i8, i8, %"class.std::error_code", i64 }
%"class.llvh::raw_pwrite_stream.base" = type { %"class.llvh::raw_ostream.base" }
%"class.llvh::raw_ostream.base" = type <{ ptr, ptr, ptr, ptr, i32 }>
%"class.std::error_code" = type { i32, ptr }
%struct.stat = type { i64, i64, i64, i32, i32, i32, i32, i64, i64, i64, i64, %struct.timespec, %struct.timespec, %struct.timespec, [3 x i64] }
%struct.timespec = type { i64, i64 }

; Function Attrs: mustprogress nounwind uwtable
define hidden noundef i64 @_ZNK4llvh14raw_fd_ostream21preferred_buffer_sizeEv(ptr noundef nonnull align 8 dereferenceable(72) %this) unnamed_addr #0 align 2 {
entry:
  %retval = alloca i64, align 8
  %this.addr = alloca ptr, align 8
  %statbuf = alloca %struct.stat, align 8
  store ptr %this, ptr %this.addr, align 8
  %this1 = load ptr, ptr %this.addr, align 8
  %FD = getelementptr inbounds %"class.llvh::raw_fd_ostream", ptr %this1, i32 0, i32 1
  %0 = load i32, ptr %FD, align 4
  %call = call i32 @fstat(i32 noundef %0, ptr noundef %statbuf) #9
  %cmp = icmp ne i32 %call, 0
  br i1 %cmp, label %if.then, label %if.end

if.then:                                          ; preds = %entry
  store i64 0, ptr %retval, align 8
  br label %return

if.end:                                           ; preds = %entry
  %st_mode = getelementptr inbounds %struct.stat, ptr %statbuf, i32 0, i32 3
  %1 = load i32, ptr %st_mode, align 8
  %and = and i32 %1, 61440
  %cmp2 = icmp eq i32 %and, 8192
  br i1 %cmp2, label %land.lhs.true, label %if.end6

land.lhs.true:                                    ; preds = %if.end
  %FD3 = getelementptr inbounds %"class.llvh::raw_fd_ostream", ptr %this1, i32 0, i32 1
  %2 = load i32, ptr %FD3, align 4
  %call4 = call i32 @isatty(i32 noundef %2) #9
  %tobool = icmp ne i32 %call4, 0
  br i1 %tobool, label %if.then5, label %if.end6

if.then5:                                         ; preds = %land.lhs.true
  store i64 0, ptr %retval, align 8
  br label %return

if.end6:                                          ; preds = %land.lhs.true, %if.end
  %st_blksize = getelementptr inbounds %struct.stat, ptr %statbuf, i32 0, i32 9
  %3 = load i64, ptr %st_blksize, align 8
  store i64 %3, ptr %retval, align 8
  br label %return

return:                                           ; preds = %if.end6, %if.then5, %if.then
  %4 = load i64, ptr %retval, align 8
  ret i64 %4
}