; Function Attrs: mustprogress nounwind uwtable
define hidden noundef i64 @_ZNK4llvh14raw_fd_ostream21preferred_buffer_sizeEv(ptr nocapture noundef nonnull readonly align 8 dereferenceable(72) %this) unnamed_addr #0 align 2 {
entry:
  %statbuf = alloca %struct.stat, align 8
  %FD = getelementptr inbounds i8, ptr %this, i64 36
  %0 = load i32, ptr %FD, align 4
  %call = call i32 @fstat(i32 noundef %0, ptr noundef nonnull %statbuf) #26
  %cmp.not = icmp eq i32 %call, 0
  br i1 %cmp.not, label %if.end, label %return

if.end:                                           ; preds = %entry
  %st_mode = getelementptr inbounds i8, ptr %statbuf, i64 24
  %1 = load i32, ptr %st_mode, align 8
  %and = and i32 %1, 61440
  %cmp2 = icmp eq i32 %and, 8192
  br i1 %cmp2, label %land.lhs.true, label %if.end6

land.lhs.true:                                    ; preds = %if.end
  %2 = load i32, ptr %FD, align 4
  %call4 = tail call i32 @isatty(i32 noundef %2) #26
  %tobool.not = icmp eq i32 %call4, 0
  br i1 %tobool.not, label %if.end6, label %return

if.end6:                                          ; preds = %land.lhs.true, %if.end
  %st_blksize = getelementptr inbounds i8, ptr %statbuf, i64 56
  %3 = load i64, ptr %st_blksize, align 8
  br label %return

return:                                           ; preds = %land.lhs.true, %entry, %if.end6
  %retval.0 = phi i64 [ %3, %if.end6 ], [ 0, %entry ], [ 0, %land.lhs.true ]
  ret i64 %retval.0
}